; Function Attrs: uwtable
define void @_ZTv0_n32_N8QuantLib9AssetSwap7results5resetEv(ptr noundef %this) unnamed_addr #17 align 2 {
entry:
  %vtable = load ptr, ptr %this, align 8, !tbaa !33
  %0 = getelementptr inbounds i8, ptr %vtable, i64 -32
  %1 = load i64, ptr %0, align 8
  %2 = getelementptr inbounds i8, ptr %this, i64 %1
  tail call void @_ZN8QuantLib4Swap7results5resetEv(ptr noundef nonnull align 8 dereferenceable(184) %2)
  %fairSpread.i = getelementptr inbounds nuw i8, ptr %2, i64 184
  store double 0x47EFFFFFE0000000, ptr %fairSpread.i, align 8, !tbaa !184
  %fairCleanPrice.i = getelementptr inbounds nuw i8, ptr %2, i64 192
  store double 0x47EFFFFFE0000000, ptr %fairCleanPrice.i, align 8, !tbaa !188
  %fairNonParRepayment.i = getelementptr inbounds nuw i8, ptr %2, i64 200
  store double 0x47EFFFFFE0000000, ptr %fairNonParRepayment.i, align 8, !tbaa !189
  ret void
}